; Function Attrs: mustprogress nofree norecurse nosync nounwind memory(argmem: readwrite) uwtable
define noundef i64 @_ZN32pxrInternal_v0_24__pxrReserved__15TfStringToInt64EPKcPb(ptr nocapture noundef readonly %0, ptr noundef writeonly %1) local_unnamed_addr #5 {
  %3 = load i8, ptr %0, align 1
  %4 = icmp eq i8 %3, 45
  br i1 %4, label %5, label %21

5:                                                ; preds = %2
  %6 = getelementptr inbounds i8, ptr %0, i64 1
  %7 = load i8, ptr %6, align 1
  %8 = add i8 %7, -48
  %or.cond15.i = icmp ult i8 %8, 10
  br i1 %or.cond15.i, label %.lr.ph.i, label %_ZN32pxrInternal_v0_24__pxrReserved__L17_StringToNegativeIlEENSt9enable_ifIXsr3std9is_signedIT_EE5valueES2_E4typeEPKcPb.exit

.lr.ph.i:                                         ; preds = %5, %14
  %9 = phi i8 [ %19, %14 ], [ %7, %5 ]
  %.01017.i = phi i64 [ %18, %14 ], [ 0, %5 ]
  %.01116.i = phi ptr [ %16, %14 ], [ %6, %5 ]
  %narrow.i = add nsw i8 %9, -48
  %10 = icmp ugt i8 %narrow.i, 8
  %11 = select i1 %10, i64 -922337203685477579, i64 -922337203685477580
  %12 = icmp slt i64 %.01017.i, %11
  br i1 %12, label %13, label %14

13:                                               ; preds = %.lr.ph.i
  %.not.i = icmp eq ptr %1, null
  br i1 %.not.i, label %_ZN32pxrInternal_v0_24__pxrReserved__L17_StringToNegativeIlEENSt9enable_ifIXsr3std9is_signedIT_EE5valueES2_E4typeEPKcPb.exit, label %_ZN32pxrInternal_v0_24__pxrReserved__L17_StringToNegativeIlEENSt9enable_ifIXsr3std9is_signedIT_EE5valueES2_E4typeEPKcPb.exit.sink.split

14:                                               ; preds = %.lr.ph.i
  %15 = zext nneg i8 %narrow.i to i64
  %16 = getelementptr inbounds i8, ptr %.01116.i, i64 1
  %17 = mul nsw i64 %.01017.i, 10
  %18 = sub nsw i64 %17, %15
  %19 = load i8, ptr %16, align 1
  %20 = add i8 %19, -48
  %or.cond.i = icmp ult i8 %20, 10
  br i1 %or.cond.i, label %.lr.ph.i, label %_ZN32pxrInternal_v0_24__pxrReserved__L17_StringToNegativeIlEENSt9enable_ifIXsr3std9is_signedIT_EE5valueES2_E4typeEPKcPb.exit, !llvm.loop !4

21:                                               ; preds = %2
  %22 = add i8 %3, -48
  %or.cond15.i6 = icmp ult i8 %22, 10
  br i1 %or.cond15.i6, label %.lr.ph.i8, label %_ZN32pxrInternal_v0_24__pxrReserved__L17_StringToNegativeIlEENSt9enable_ifIXsr3std9is_signedIT_EE5valueES2_E4typeEPKcPb.exit

.lr.ph.i8:                                        ; preds = %21, %28
  %23 = phi i8 [ %33, %28 ], [ %3, %21 ]
  %.01017.i9 = phi i64 [ %32, %28 ], [ 0, %21 ]
  %.01116.i10 = phi ptr [ %30, %28 ], [ %0, %21 ]
  %narrow.i11 = add nsw i8 %23, -48
  %24 = icmp ugt i8 %narrow.i11, 7
  %25 = select i1 %24, i64 922337203685477579, i64 922337203685477580
  %26 = icmp sgt i64 %.01017.i9, %25
  br i1 %26, label %27, label %28

27:                                               ; preds = %.lr.ph.i8
  %.not.i13 = icmp eq ptr %1, null
  br i1 %.not.i13, label %_ZN32pxrInternal_v0_24__pxrReserved__L17_StringToNegativeIlEENSt9enable_ifIXsr3std9is_signedIT_EE5valueES2_E4typeEPKcPb.exit, label %_ZN32pxrInternal_v0_24__pxrReserved__L17_StringToNegativeIlEENSt9enable_ifIXsr3std9is_signedIT_EE5valueES2_E4typeEPKcPb.exit.sink.split

28:                                               ; preds = %.lr.ph.i8
  %29 = zext nneg i8 %narrow.i11 to i64
  %30 = getelementptr inbounds i8, ptr %.01116.i10, i64 1
  %31 = mul nsw i64 %.01017.i9, 10
  %32 = add nsw i64 %31, %29
  %33 = load i8, ptr %30, align 1
  %34 = add i8 %33, -48
  %or.cond.i12 = icmp ult i8 %34, 10
  br i1 %or.cond.i12, label %.lr.ph.i8, label %_ZN32pxrInternal_v0_24__pxrReserved__L17_StringToNegativeIlEENSt9enable_ifIXsr3std9is_signedIT_EE5valueES2_E4typeEPKcPb.exit, !llvm.loop !6

_ZN32pxrInternal_v0_24__pxrReserved__L17_StringToNegativeIlEENSt9enable_ifIXsr3std9is_signedIT_EE5valueES2_E4typeEPKcPb.exit.sink.split: ; preds = %27, %13
  %.0.ph = phi i64 [ -9223372036854775808, %13 ], [ 9223372036854775807, %27 ]
  store i8 1, ptr %1, align 1
  br label %_ZN32pxrInternal_v0_24__pxrReserved__L17_StringToNegativeIlEENSt9enable_ifIXsr3std9is_signedIT_EE5valueES2_E4typeEPKcPb.exit

_ZN32pxrInternal_v0_24__pxrReserved__L17_StringToNegativeIlEENSt9enable_ifIXsr3std9is_signedIT_EE5valueES2_E4typeEPKcPb.exit: ; preds = %28, %14, %_ZN32pxrInternal_v0_24__pxrReserved__L17_StringToNegativeIlEENSt9enable_ifIXsr3std9is_signedIT_EE5valueES2_E4typeEPKcPb.exit.sink.split, %27, %21, %13, %5
  %.0 = phi i64 [ -9223372036854775808, %13 ], [ 0, %5 ], [ 9223372036854775807, %27 ], [ 0, %21 ], [ %.0.ph, %_ZN32pxrInternal_v0_24__pxrReserved__L17_StringToNegativeIlEENSt9enable_ifIXsr3std9is_signedIT_EE5valueES2_E4typeEPKcPb.exit.sink.split ], [ %18, %14 ], [ %32, %28 ]
  ret i64 %.0
}